; Function Attrs: mustprogress nofree norecurse nosync nounwind willreturn memory(read, inaccessiblemem: none) uwtable
define { ptr, i32 } @_ZNK10OpenSubdiv6v3_6_03Far10PatchTable18getPatchFVarValuesEii(ptr nocapture noundef nonnull readonly align 8 dereferenceable(273) %0, i32 noundef %1, i32 noundef %2) local_unnamed_addr #6 align 2 {
  %4 = getelementptr inbounds nuw i8, ptr %0, i64 176
  %5 = sext i32 %2 to i64
  %6 = load ptr, ptr %4, align 8
  %7 = getelementptr inbounds %"struct.OpenSubdiv::v3_6_0::Far::PatchTable::FVarPatchChannel", ptr %6, i64 %5
  %8 = getelementptr inbounds nuw i8, ptr %7, i64 40
  %9 = sext i32 %1 to i64
  %10 = load ptr, ptr %8, align 8
  %11 = getelementptr inbounds %"struct.OpenSubdiv::v3_6_0::Far::PatchParam", ptr %10, i64 %9
  %12 = load i64, ptr %11, align 4
  %13 = and i64 %12, 137438953472
  %.not = icmp eq i64 %13, 0
  br i1 %.not, label %18, label %14

14:                                               ; preds = %3
  %15 = getelementptr inbounds nuw i8, ptr %7, i64 4
  %16 = load i32, ptr %15, align 4
  %switch.tableidx = add i32 %16, -1
  %17 = icmp ult i32 %switch.tableidx, 10
  br i1 %17, label %switch.lookup, label %_ZNK10OpenSubdiv6v3_6_03Far15PatchDescriptor21GetNumControlVerticesEv.exit

18:                                               ; preds = %3
  %19 = getelementptr inbounds nuw i8, ptr %7, i64 8
  %20 = load i32, ptr %19, align 4
  %switch.tableidx12 = add i32 %20, -1
  %21 = icmp ult i32 %switch.tableidx12, 10
  br i1 %21, label %switch.lookup11, label %_ZNK10OpenSubdiv6v3_6_03Far15PatchDescriptor21GetNumControlVerticesEv.exit

switch.lookup:                                    ; preds = %14
  %22 = zext nneg i32 %switch.tableidx to i64
  %switch.gep = getelementptr inbounds [10 x i32], ptr @switch.table._ZNK10OpenSubdiv6v3_6_03Far10PatchTable18GetPatchFVarValuesEiii.5, i64 0, i64 %22
  br label %_ZNK10OpenSubdiv6v3_6_03Far15PatchDescriptor21GetNumControlVerticesEv.exit.sink.split

switch.lookup11:                                  ; preds = %18
  %23 = zext nneg i32 %switch.tableidx12 to i64
  %switch.gep13 = getelementptr inbounds [10 x i32], ptr @switch.table._ZNK10OpenSubdiv6v3_6_03Far10PatchTable18GetPatchFVarValuesEiii.5, i64 0, i64 %23
  br label %_ZNK10OpenSubdiv6v3_6_03Far15PatchDescriptor21GetNumControlVerticesEv.exit.sink.split

_ZNK10OpenSubdiv6v3_6_03Far15PatchDescriptor21GetNumControlVerticesEv.exit.sink.split: ; preds = %switch.lookup, %switch.lookup11
  %switch.gep13.sink = phi ptr [ %switch.gep13, %switch.lookup11 ], [ %switch.gep, %switch.lookup ]
  %switch.load14 = load i32, ptr %switch.gep13.sink, align 4
  br label %_ZNK10OpenSubdiv6v3_6_03Far15PatchDescriptor21GetNumControlVerticesEv.exit

_ZNK10OpenSubdiv6v3_6_03Far15PatchDescriptor21GetNumControlVerticesEv.exit: ; preds = %_ZNK10OpenSubdiv6v3_6_03Far15PatchDescriptor21GetNumControlVerticesEv.exit.sink.split, %18, %14
  %24 = phi i32 [ -1, %14 ], [ -1, %18 ], [ %switch.load14, %_ZNK10OpenSubdiv6v3_6_03Far15PatchDescriptor21GetNumControlVerticesEv.exit.sink.split ]
  %25 = getelementptr inbounds nuw i8, ptr %7, i64 16
  %26 = getelementptr inbounds nuw i8, ptr %7, i64 12
  %27 = load i32, ptr %26, align 4
  %28 = mul nsw i32 %27, %1
  %29 = sext i32 %28 to i64
  %30 = load ptr, ptr %25, align 8
  %31 = getelementptr inbounds i32, ptr %30, i64 %29
  %.fca.0.insert = insertvalue { ptr, i32 } poison, ptr %31, 0
  %.fca.1.insert = insertvalue { ptr, i32 } %.fca.0.insert, i32 %24, 1
  ret { ptr, i32 } %.fca.1.insert
}